target datalayout = "e-m:e-p270:32:32-p271:32:32-p272:64:64-i64:64-i128:128-f80:128-n8:16:32:64-S128"
target triple = "x86_64-pc-linux-gnu"

%class.Register = type { i32 }
%class.XMMRegister = type { i32 }
%class.RelocationHolder = type { [40 x i8] }
%class.MachNode = type { %class.Node.base, i8, i16, ptr }
%class.Node.base = type <{ ptr, ptr, ptr, i32, i32, i32, i32, i32, i32, i32 }>
%class.Address = type { %class.Register, %class.Register, %class.XMMRegister, i32, i32, i8, [3 x i8], %class.RelocationHolder }
%class.loadBNode = type { %class.MachNode, [2 x ptr] }

@_ZL5noreg = internal constant %class.Register { i32 -1 }, align 4

; Function Attrs: mustprogress nounwind uwtable
define linkonce_odr hidden void @_ZN8RegisterC2Eib(ptr noundef nonnull align 4 dereferenceable(4) %0, i32 noundef %1, i1 noundef zeroext %2) unnamed_addr #1 comdat align 2 {
  %4 = alloca ptr, align 8
  %5 = alloca i32, align 4
  %6 = alloca i8, align 1
  store ptr %0, ptr %4, align 8
  store i32 %1, ptr %5, align 4
  %7 = zext i1 %2 to i8
  store i8 %7, ptr %6, align 1
  %8 = load ptr, ptr %4, align 8
  %9 = getelementptr inbounds %class.Register, ptr %8, i32 0, i32 0
  %10 = load i32, ptr %5, align 4
  store i32 %10, ptr %9, align 4
  ret void
}

; Function Attrs: mustprogress nounwind uwtable
define linkonce_odr hidden i32 @_Z11as_Registeri(i32 noundef %0) #1 comdat {
  %2 = alloca %class.Register, align 4
  %3 = alloca i32, align 4
  store i32 %0, ptr %3, align 4
  %4 = load i32, ptr %3, align 4
  %5 = icmp sle i32 0, %4
  br i1 %5, label %6, label %11

6:                                                ; preds = %1
  %7 = load i32, ptr %3, align 4
  %8 = icmp slt i32 %7, 32
  br i1 %8, label %9, label %11

9:                                                ; preds = %6
  %10 = load i32, ptr %3, align 4
  call void @_ZN8RegisterC2Eib(ptr noundef nonnull align 4 dereferenceable(4) %2, i32 noundef %10, i1 noundef zeroext false)
  br label %12

11:                                               ; preds = %6, %1
  call void @llvm.memcpy.p0.p0.i64(ptr align 4 %2, ptr align 4 @_ZL5noreg, i64 4, i1 false)
  br label %12

12:                                               ; preds = %11, %9
  %13 = getelementptr inbounds %class.Register, ptr %2, i32 0, i32 0
  %14 = load i32, ptr %13, align 4
  ret i32 %14
}

; Function Attrs: mustprogress nounwind uwtable
define linkonce_odr hidden i32 @_ZNK8MachOper11as_RegisterEP13PhaseRegAllocPK4Node(ptr noundef nonnull align 8 dereferenceable(8) %0, ptr noundef %1, ptr noundef %2) #1 comdat align 2 {
  %4 = alloca %class.Register, align 4
  %5 = alloca ptr, align 8
  %6 = alloca ptr, align 8
  %7 = alloca ptr, align 8
  store ptr %0, ptr %5, align 8
  store ptr %1, ptr %6, align 8
  store ptr %2, ptr %7, align 8
  %8 = load ptr, ptr %5, align 8
  %9 = load ptr, ptr %6, align 8
  %10 = load ptr, ptr %7, align 8
  %11 = load ptr, ptr %8, align 8
  %12 = getelementptr inbounds ptr, ptr %11, i64 4
  %13 = load ptr, ptr %12, align 8
  %14 = call noundef i32 %13(ptr noundef nonnull align 8 dereferenceable(8) %8, ptr noundef %9, ptr noundef %10)
  %15 = call i32 @_Z11as_Registeri(i32 noundef %14)
  %16 = getelementptr inbounds %class.Register, ptr %4, i32 0, i32 0
  store i32 %15, ptr %16, align 4
  %17 = getelementptr inbounds %class.Register, ptr %4, i32 0, i32 0
  %18 = load i32, ptr %17, align 4
  ret i32 %18
}

; Function Attrs: mustprogress nounwind uwtable
define linkonce_odr hidden noundef ptr @_ZNK9loadBNode10opnd_arrayEj(ptr noundef nonnull align 8 dereferenceable(80) %0, i32 noundef %1) #1 comdat align 2 {
  %3 = alloca ptr, align 8
  %4 = alloca i32, align 4
  store ptr %0, ptr %3, align 8
  store i32 %1, ptr %4, align 4
  %5 = load ptr, ptr %3, align 8
  %6 = getelementptr inbounds %class.loadBNode, ptr %5, i32 0, i32 1
  %7 = load i32, ptr %4, align 4
  %8 = zext i32 %7 to i64
  %9 = getelementptr inbounds [2 x ptr], ptr %6, i64 0, i64 %8
  %10 = load ptr, ptr %9, align 8
  ret ptr %10
}

; Function Attrs: mustprogress nounwind uwtable
define hidden void @_ZNK9loadBNode4emitEP17C2_MacroAssemblerP13PhaseRegAlloc(ptr noundef nonnull align 8 dereferenceable(80) %0, ptr noundef %1, ptr noundef %2) unnamed_addr #1 align 2 {
  %4 = alloca ptr, align 8
  %5 = alloca ptr, align 8
  %6 = alloca ptr, align 8
  %7 = alloca i32, align 4
  %8 = alloca i32, align 4
  %9 = alloca %class.Register, align 4
  %10 = alloca %class.Address, align 8
  store ptr %0, ptr %4, align 8
  store ptr %1, ptr %5, align 8
  store ptr %2, ptr %6, align 8
  %11 = load ptr, ptr %4, align 8
  store i32 2, ptr %7, align 4
  store i32 2, ptr %8, align 4
  %12 = load ptr, ptr %5, align 8
  %13 = call noundef ptr @_ZNK9loadBNode10opnd_arrayEj(ptr noundef nonnull align 8 dereferenceable(80) %11, i32 noundef 0)
  %14 = load ptr, ptr %6, align 8
  %15 = call i32 @_ZNK8MachOper11as_RegisterEP13PhaseRegAllocPK4Node(ptr noundef nonnull align 8 dereferenceable(8) %13, ptr noundef %14, ptr noundef %11)
  %16 = getelementptr inbounds %class.Register, ptr %9, i32 0, i32 0
  store i32 %15, ptr %16, align 4
  %17 = call noundef ptr @_ZNK9loadBNode10opnd_arrayEj(ptr noundef nonnull align 8 dereferenceable(80) %11, i32 noundef 1)
  %18 = load ptr, ptr %6, align 8
  %19 = load i32, ptr %8, align 4
  %20 = load ptr, ptr %17, align 8
  %21 = getelementptr inbounds ptr, ptr %20, i64 13
  %22 = load ptr, ptr %21, align 8
  %23 = call noundef i32 %22(ptr noundef nonnull align 8 dereferenceable(8) %17, ptr noundef %18, ptr noundef %11, i32 noundef %19)
  %24 = call noundef ptr @_ZNK9loadBNode10opnd_arrayEj(ptr noundef nonnull align 8 dereferenceable(80) %11, i32 noundef 1)
  %25 = load ptr, ptr %6, align 8
  %26 = load i32, ptr %8, align 4
  %27 = load ptr, ptr %24, align 8
  %28 = getelementptr inbounds ptr, ptr %27, i64 14
  %29 = load ptr, ptr %28, align 8
  %30 = call noundef i32 %29(ptr noundef nonnull align 8 dereferenceable(8) %24, ptr noundef %25, ptr noundef %11, i32 noundef %26)
  %31 = call noundef ptr @_ZNK9loadBNode10opnd_arrayEj(ptr noundef nonnull align 8 dereferenceable(80) %11, i32 noundef 1)
  %32 = load ptr, ptr %31, align 8
  %33 = getelementptr inbounds ptr, ptr %32, i64 15
  %34 = load ptr, ptr %33, align 8
  %35 = call noundef i32 %34(ptr noundef nonnull align 8 dereferenceable(8) %31)
  %36 = call noundef ptr @_ZNK9loadBNode10opnd_arrayEj(ptr noundef nonnull align 8 dereferenceable(80) %11, i32 noundef 1)
  %37 = load ptr, ptr %6, align 8
  %38 = load i32, ptr %8, align 4
  %39 = load ptr, ptr %36, align 8
  %40 = getelementptr inbounds ptr, ptr %39, i64 16
  %41 = load ptr, ptr %40, align 8
  %42 = call noundef i32 %41(ptr noundef nonnull align 8 dereferenceable(8) %36, ptr noundef %37, ptr noundef %11, i32 noundef %38)
  %43 = call noundef ptr @_ZNK9loadBNode10opnd_arrayEj(ptr noundef nonnull align 8 dereferenceable(80) %11, i32 noundef 1)
  %44 = load ptr, ptr %43, align 8
  %45 = getelementptr inbounds ptr, ptr %44, i64 17
  %46 = load ptr, ptr %45, align 8
  %47 = call noundef i32 %46(ptr noundef nonnull align 8 dereferenceable(8) %43)
  call void @_ZN7Address8make_rawEiiiiN9relocInfo9relocTypeE(ptr dead_on_unwind writable sret(%class.Address) align 8 %10, i32 noundef %23, i32 noundef %30, i32 noundef %35, i32 noundef %42, i32 noundef %47)
  %48 = getelementptr inbounds %class.Register, ptr %9, i32 0, i32 0
  %49 = load i32, ptr %48, align 4
  call void @_ZN9Assembler6movsblE8Register7Address(ptr noundef nonnull align 8 dereferenceable(40) %12, i32 %49, ptr noundef %10)
  ret void
}